target datalayout = "e-m:e-p270:32:32-p271:32:32-p272:64:64-i64:64-i128:128-f80:128-n8:16:32:64-S128"
target triple = "x86_64-pc-linux-gnu"

%struct._packet_info = type { ptr, ptr, i32, i32, %struct.nstime_t, %struct.nstime_t, %struct.nstime_t, i8, ptr, ptr, ptr, ptr, %struct._address, %struct._address, %struct._address, %struct._address, %struct._address, %struct._address, i32, ptr, i8, [3 x i8], %struct.anon, i32, i32, i32, i32, ptr, i8, ptr, ptr, i16, i16, i32, i32, i16, i32, i32, ptr, ptr, ptr, i8, i8, i16, i16, i16, i32, i16, i16, ptr, ptr, ptr, ptr, ptr, i32, i32 }
%struct.nstime_t = type { i64, i32 }
%struct._address = type { i32, i32, ptr, ptr }
%struct.anon = type { i8, [3 x i8] }
%struct._diam_ctx_t = type { ptr, ptr, ptr }
%struct._diam_sub_dis_t = type { i32, i32, i32, i8, i32, ptr, ptr, i32, i32, i8 }
%struct._proto_node = type { ptr, ptr, ptr, ptr, ptr, ptr, ptr }

@.str.70 = private unnamed_addr constant [3 x i8] c": \00", align 1
@hf_diameter_other_vendor_exp_res = internal global i32 0, align 4

; Function Attrs: null_pointer_is_valid sspstrong uwtable
define internal void @dissect_diameter_other_vendor_exp_res(ptr noundef %0, ptr noundef %1, ptr noundef %2, ptr noundef %3) #0 {
  %5 = alloca ptr, align 8
  %6 = alloca ptr, align 8
  %7 = alloca ptr, align 8
  %8 = alloca ptr, align 8
  %9 = alloca ptr, align 8
  store ptr %0, ptr %5, align 8
  store ptr %1, ptr %6, align 8
  store ptr %2, ptr %7, align 8
  store ptr %3, ptr %8, align 8
  call void @llvm.lifetime.start.p0(i64 8, ptr %9) #14
  %10 = load ptr, ptr %7, align 8
  %11 = icmp ne ptr %10, null
  br i1 %11, label %12, label %38

12:                                               ; preds = %4
  %13 = load ptr, ptr %7, align 8
  %14 = load i32, ptr @hf_diameter_other_vendor_exp_res, align 4
  %15 = load ptr, ptr %6, align 8
  %16 = call ptr @proto_tree_add_item(ptr noundef %13, i32 noundef %14, ptr noundef %15, i32 noundef 0, i32 noundef 4, i32 noundef 0)
  store ptr %16, ptr %9, align 8
  %17 = load ptr, ptr %5, align 8
  %18 = getelementptr inbounds nuw %struct._diam_ctx_t, ptr %17, i32 0, i32 1
  %19 = load ptr, ptr %18, align 8
  %20 = getelementptr inbounds nuw %struct._packet_info, ptr %19, i32 0, i32 51
  %21 = load ptr, ptr %20, align 8
  %22 = call noalias ptr @wmem_alloc(ptr noundef %21, i64 noundef 241) #15
  %23 = load ptr, ptr %8, align 8
  %24 = getelementptr inbounds nuw %struct._diam_sub_dis_t, ptr %23, i32 0, i32 5
  store ptr %22, ptr %24, align 8
  %25 = load ptr, ptr %9, align 8
  %26 = getelementptr inbounds nuw %struct._proto_node, ptr %25, i32 0, i32 5
  %27 = load ptr, ptr %26, align 8
  %28 = load ptr, ptr %8, align 8
  %29 = getelementptr inbounds nuw %struct._diam_sub_dis_t, ptr %28, i32 0, i32 5
  %30 = load ptr, ptr %29, align 8
  call void @proto_item_fill_label(ptr noundef %27, ptr noundef %30, ptr noundef null)
  %31 = load ptr, ptr %8, align 8
  %32 = getelementptr inbounds nuw %struct._diam_sub_dis_t, ptr %31, i32 0, i32 5
  %33 = load ptr, ptr %32, align 8
  %34 = call ptr @strstr(ptr noundef %33, ptr noundef @.str.70) #17
  %35 = getelementptr i8, ptr %34, i64 2
  %36 = load ptr, ptr %8, align 8
  %37 = getelementptr inbounds nuw %struct._diam_sub_dis_t, ptr %36, i32 0, i32 5
  store ptr %35, ptr %37, align 8
  br label %38

38:                                               ; preds = %12, %4
  call void @llvm.lifetime.end.p0(i64 8, ptr %9) #14
  ret void
}