; Function Attrs: null_pointer_is_valid sspstrong uwtable
define internal fastcc void @dissect_diameter_other_vendor_exp_res(ptr noundef readonly captures(none) %0, ptr noundef %1, ptr noundef %2, ptr noundef captures(none) %3) unnamed_addr #0 {
  %.not = icmp eq ptr %2, null
  br i1 %.not, label %19, label %5

5:                                                ; preds = %4
  %6 = load i32, ptr @hf_diameter_other_vendor_exp_res, align 4
  %7 = tail call ptr @proto_tree_add_item(ptr noundef nonnull %2, i32 noundef %6, ptr noundef %1, i32 noundef 0, i32 noundef 4, i32 noundef 0)
  %8 = getelementptr inbounds nuw i8, ptr %0, i64 8
  %9 = load ptr, ptr %8, align 8
  %10 = getelementptr inbounds nuw i8, ptr %9, i64 408
  %11 = load ptr, ptr %10, align 8
  %12 = tail call noalias dereferenceable_or_null(241) ptr @wmem_alloc(ptr noundef %11, i64 noundef 241) #15
  %13 = getelementptr inbounds nuw i8, ptr %3, i64 24
  store ptr %12, ptr %13, align 8
  %14 = getelementptr inbounds nuw i8, ptr %7, i64 40
  %15 = load ptr, ptr %14, align 8
  tail call void @proto_item_fill_label(ptr noundef %15, ptr noundef %12, ptr noundef null)
  %16 = load ptr, ptr %13, align 8
  %17 = tail call ptr @strstr(ptr noundef %16, ptr noundef nonnull dereferenceable(1) @.str.70) #18
  %18 = getelementptr i8, ptr %17, i64 2
  store ptr %18, ptr %13, align 8
  br label %19

19:                                               ; preds = %5, %4
  ret void
}